Certificate:
    Data:
        Version: 3 (0x2)
        Serial Number: 0 (0x0)
    Signature Algorithm: sha256WithRSAEncryption
        Issuer: C=VN, ST=Hanoi, L=Hanoi, O=HANDESK.XYZ, OU=HANDESK.XYZ, CN=handesk.xyz/emailAddress=info@handesk.xyz
        Validity
            Not Before: Aug 26 05:10:16 2018 GMT
            Not After : Aug 26 05:10:16 2019 GMT
        Subject: C=VN, ST=Hanoi, L=Hanoi, O=HANDESK.XYZ, OU=HANDESK.XYZ, CN=handesk.xyz/emailAddress=info@handesk.xyz
        Subject Public Key Info:
            Public Key Algorithm: rsaEncryption
                Public-Key: (4096 bit)
                Modulus:
                    00:cb:8b:6d:02:c9:40:a9:61:97:d4:d1:f2:d3:a8:
                    05:4c:6d:49:83:51:60:e7:57:8d:77:b7:1e:86:5e:
                    7f:53:5e:d7:47:41:90:2d:86:20:e9:0b:4e:56:e0:
                    b5:fe:4c:4e:c5:f3:f0:96:4f:0e:be:8a:41:f0:56:
                    40:8c:b6:1f:c6:3d:16:68:a9:e3:c5:bf:9f:d9:a9:
                    b3:4f:13:38:78:65:70:0e:72:9d:ea:39:5a:47:cc:
                    9b:5c:ec:10:b1:df:d2:f9:74:95:92:14:27:2b:8b:
                    80:4a:c1:f4:e6:cf:4f:83:a9:05:99:87:32:0b:e6:
                    02:db:1c:fa:62:42:15:9c:d6:ff:04:c4:41:e0:52:
                    72:5a:10:d6:00:02:64:23:d8:1a:da:5b:85:23:8e:
                    6e:09:dd:71:24:a2:7e:83:58:7e:c7:fb:3a:5c:93:
                    da:7e:4b:77:9c:8f:2b:d6:42:c3:8d:67:76:31:4d:
                    8a:c2:6a:2d:36:0a:30:f0:cb:da:70:b1:24:32:84:
                    9d:be:fc:5f:35:a4:3b:cd:a4:49:e5:38:3d:42:64:
                    3b:de:84:7a:f8:f8:d4:fb:0b:52:cc:b0:13:cd:a5:
                    44:bf:aa:40:46:3a:10:f5:a2:0e:e4:a8:ee:ed:12:
                    26:64:b6:af:2e:ca:80:8a:b4:b7:56:d8:47:c9:4a:
                    6d:42:0e:f8:22:08:fd:35:08:59:77:bc:93:04:7f:
                    0f:e8:8e:65:5a:87:74:36:41:8e:e2:83:1d:1e:77:
                    54:d9:79:f3:7c:f7:ac:0a:28:29:78:84:93:c8:7f:
                    d1:4d:f1:44:2d:e7:ae:e4:9d:82:65:92:c4:7c:46:
                    6d:8c:d5:a4:89:0a:33:01:2d:a2:e2:5b:cd:72:54:
                    bb:84:dd:e2:f2:ee:2f:51:c5:17:46:54:ce:17:6c:
                    10:92:4b:40:8e:4a:b9:c1:97:ed:e5:06:fe:2b:38:
                    b8:39:87:f2:44:65:30:f8:3a:86:6e:82:9b:b8:39:
                    be:f8:db:c5:55:21:18:37:ec:b5:8d:c8:1c:57:3a:
                    44:fb:0a:e0:97:7f:70:72:b4:8b:cd:cb:c1:25:55:
                    9c:01:84:f8:08:8c:b0:d3:e5:ff:e5:97:5e:2d:81:
                    83:40:9e:4e:67:fb:2d:e3:ac:d1:72:d2:a8:e1:35:
                    6e:de:0f:c6:8d:ad:d0:ca:b3:e1:f4:cb:f2:38:07:
                    e7:52:fd:a0:36:26:0c:f9:01:37:66:98:44:12:bc:
                    fc:ea:8c:f7:38:e8:2a:bd:e2:b1:13:94:76:3f:22:
                    dc:a0:cc:ce:58:be:17:7b:47:26:42:b5:dd:88:4b:
                    47:2e:a2:cf:84:74:ca:c5:e1:fc:df:3e:b0:df:af:
                    5b:58:d9
                Exponent: 65537 (0x10001)
        X509v3 extensions:
            X509v3 Subject Key Identifier: 
                10:F4:59:2A:99:36:82:8F:45:9E:73:F1:3D:87:C7:3F:09:2E:78:42
            X509v3 Authority Key Identifier: 
                keyid:10:F4:59:2A:99:36:82:8F:45:9E:73:F1:3D:87:C7:3F:09:2E:78:42

            X509v3 Basic Constraints: 
                CA:TRUE
    Signature Algorithm: sha256WithRSAEncryption
         16:9c:4e:97:98:be:2c:43:88:82:03:ce:38:1f:dc:c1:26:65:
         2e:f3:a8:6e:70:6b:c9:a9:ac:b9:1b:7b:8c:a9:39:6e:2d:ea:
         ac:87:6a:c0:d1:de:fd:f8:73:fb:23:3b:5e:b3:e1:62:51:18:
         4a:2c:ad:e1:fa:f7:ca:e8:3f:0e:92:fe:5f:70:8b:27:58:e2:
         f1:20:9f:1b:b0:d6:d1:24:f4:89:b3:ff:3e:33:8d:ab:1d:2d:
         0f:30:13:59:a6:68:e2:4c:69:f1:d3:a2:93:be:b7:1e:d2:b4:
         57:41:8f:45:32:93:5d:7d:e8:f5:29:11:78:58:be:9b:65:c2:
         39:af:80:98:df:5c:d8:c2:dd:50:b1:1f:02:89:52:d5:2a:25:
         3f:2b:29:71:f3:69:7d:e3:66:e3:76:0b:20:3a:51:ec:d1:c1:
         70:8b:2f:cd:0a:63:24:6a:7c:38:19:81:3a:57:01:88:03:e8:
         66:8e:cb:93:a3:ea:96:a2:b8:84:88:d3:e2:74:5a:41:85:23:
         29:90:b8:94:b9:24:20:37:83:91:5a:1f:07:20:69:29:d2:8f:
         49:14:ae:5f:9b:d3:32:f2:96:97:c1:d8:1e:17:59:cd:bb:25:
         f4:96:9e:f3:14:8a:8e:e5:c2:10:3a:b3:61:86:d9:8a:3c:20:
         bc:d5:e9:1c:47:8e:bc:9c:5b:76:45:31:53:71:66:68:dc:c5:
         d0:44:11:c0:57:c8:fa:f7:f6:63:de:4d:63:03:aa:63:c6:66:
         5d:89:c9:d5:6a:dd:77:d5:85:02:4b:f3:9c:bb:a1:42:63:e4:
         41:57:36:67:62:6e:fa:a3:9f:82:0f:01:19:6a:a9:8f:8a:27:
         5b:3d:ef:e4:71:1d:53:1c:ff:5e:b6:7b:66:3a:5c:17:5c:80:
         d9:3f:95:d1:2c:67:58:52:a4:0a:17:86:42:d8:43:f0:e1:34:
         25:35:48:99:a2:d1:89:10:96:d8:bf:35:e7:31:f1:52:4a:c9:
         80:ef:00:40:9b:6c:00:b3:04:98:8e:a5:b3:a4:4c:ec:ca:93:
         a6:da:f5:88:a8:ea:ca:56:68:bd:b7:a7:f6:85:09:45:3b:79:
         f8:77:03:44:bf:5f:4d:1d:60:16:55:08:24:9d:d6:58:1a:17:
         fa:fb:d1:6a:c7:19:3a:f4:e2:5e:fa:d5:ef:cc:6c:30:b1:ff:
         1f:ca:66:06:6f:8a:29:13:7c:58:a9:83:98:92:d6:60:91:06:
         25:95:03:81:fe:a6:9a:16:11:48:ad:3b:32:ed:8b:86:92:85:
         6a:a8:ab:a5:29:ef:e8:67:9e:bd:ad:ab:58:a0:33:d9:2e:dc:
         d9:d7:1d:aa:de:6d:f3:c8
-----BEGIN CERTIFICATE-----
MIIF7TCCA9WgAwIBAgIBADANBgkqhkiG9w0BAQsFADCBkDELMAkGA1UEBhMCVk4x
DjAMBgNVBAgMBUhhbm9pMQ4wDAYDVQQHDAVIYW5vaTEUMBIGA1UECgwLSEFOREVT
Sy5YWVoxFDASBgNVBAsMC0hBTkRFU0suWFlaMRQwEgYDVQQDDAtoYW5kZXNrLnh5
ejEfMB0GCSqGSIb3DQEJARYQaW5mb0BoYW5kZXNrLnh5ejAeFw0xODA4MjYwNTEw
MTZaFw0xOTA4MjYwNTEwMTZaMIGQMQswCQYDVQQGEwJWTjEOMAwGA1UECAwFSGFu
b2kxDjAMBgNVBAcMBUhhbm9pMRQwEgYDVQQKDAtIQU5ERVNLLlhZWjEUMBIGA1UE
CwwLSEFOREVTSy5YWVoxFDASBgNVBAMMC2hhbmRlc2sueHl6MR8wHQYJKoZIhvcN
AQkBFhBpbmZvQGhhbmRlc2sueHl6MIICIjANBgkqhkiG9w0BAQEFAAOCAg8AMIIC
CgKCAgEAy4ttAslAqWGX1NHy06gFTG1Jg1Fg51eNd7cehl5/U17XR0GQLYYg6QtO
VuC1/kxOxfPwlk8OvopB8FZAjLYfxj0WaKnjxb+f2amzTxM4eGVwDnKd6jlaR8yb
XOwQsd/S+XSVkhQnK4uASsH05s9Pg6kFmYcyC+YC2xz6YkIVnNb/BMRB4FJyWhDW
AAJkI9ga2luFI45uCd1xJKJ+g1h+x/s6XJPafkt3nI8r1kLDjWd2MU2KwmotNgow
8MvacLEkMoSdvvxfNaQ7zaRJ5Tg9QmQ73oR6+PjU+wtSzLATzaVEv6pARjoQ9aIO
5Kju7RImZLavLsqAirS3VthHyUptQg74Igj9NQhZd7yTBH8P6I5lWod0NkGO4oMd
HndU2XnzfPesCigpeISTyH/RTfFELeeu5J2CZZLEfEZtjNWkiQozAS2i4lvNclS7
hN3i8u4vUcUXRlTOF2wQkktAjkq5wZft5Qb+Kzi4OYfyRGUw+DqGboKbuDm++NvF
VSEYN+y1jcgcVzpE+wrgl39wcrSLzcvBJVWcAYT4CIyw0+X/5ZdeLYGDQJ5OZ/st
46zRctKo4TVu3g/Gja3QyrPh9MvyOAfnUv2gNiYM+QE3ZphEErz86oz3OOgqveKx
E5R2PyLcoMzOWL4Xe0cmQrXdiEtHLqLPhHTKxeH83z6w369bWNkCAwEAAaNQME4w
HQYDVR0OBBYEFBD0WSqZNoKPRZ5z8T2Hxz8JLnhCMB8GA1UdIwQYMBaAFBD0WSqZ
NoKPRZ5z8T2Hxz8JLnhCMAwGA1UdEwQFMAMBAf8wDQYJKoZIhvcNAQELBQADggIB
ABacTpeYvixDiIIDzjgf3MEmZS7zqG5wa8mprLkbe4ypOW4t6qyHasDR3v34c/sj
O16z4WJRGEosreH698roPw6S/l9wiydY4vEgnxuw1tEk9Imz/z4zjasdLQ8wE1mm
aOJMafHTopO+tx7StFdBj0Uyk1196PUpEXhYvptlwjmvgJjfXNjC3VCxHwKJUtUq
JT8rKXHzaX3jZuN2CyA6UezRwXCLL80KYyRqfDgZgTpXAYgD6GaOy5Oj6paiuISI
0+J0WkGFIymQuJS5JCA3g5FaHwcgaSnSj0kUrl+b0zLylpfB2B4XWc27JfSWnvMU
io7lwhA6s2GG2Yo8ILzV6RxHjrycW3ZFMVNxZmjcxdBEEcBXyPr39mPeTWMDqmPG
Zl2JydVq3XfVhQJL85y7oUJj5EFXNmdibvqjn4IPARlqqY+KJ1s97+RxHVMc/162
e2Y6XBdcgNk/ldEsZ1hSpAoXhkLYQ/DhNCU1SJmi0YkQlti/Necx8VJKyYDvAECb
bACzBJiOpbOkTOzKk6ba9Yio6spWaL23p/aFCUU7efh3A0S/X00dYBZVCCSd1lga
F/r70WrHGTr04l761e/MbDCx/x/KZgZviikTfFipg5iS1mCRBiWVA4H+ppoWEUit
OzLti4aShWqoq6Up7+hnnr2tq1igM9ku3NnXHarebfPI
-----END CERTIFICATE-----
