Certificate:
    Data:
        Version: 3 (0x2)
        Serial Number: 0 (0x0)
    Signature Algorithm: sha256WithRSAEncryption
        Issuer: C=VN, ST=Hanoi, L=Hanoi, O=HANDESK.COM, OU=HANDESK.COM, CN=handesk.COM/emailAddress=info@handesk.COM
        Validity
            Not Before: Aug 26 05:11:14 2018 GMT
            Not After : Aug 26 05:11:14 2019 GMT
        Subject: C=VN, ST=Hanoi, L=Hanoi, O=HANDESK.COM, OU=HANDESK.COM, CN=handesk.COM/emailAddress=info@handesk.COM
        Subject Public Key Info:
            Public Key Algorithm: rsaEncryption
                Public-Key: (4096 bit)
                Modulus:
                    00:cb:8b:6d:02:c9:40:a9:61:97:d4:d1:f2:d3:a8:
                    05:4c:6d:49:83:51:60:e7:57:8d:77:b7:1e:86:5e:
                    7f:53:5e:d7:47:41:90:2d:86:20:e9:0b:4e:56:e0:
                    b5:fe:4c:4e:c5:f3:f0:96:4f:0e:be:8a:41:f0:56:
                    40:8c:b6:1f:c6:3d:16:68:a9:e3:c5:bf:9f:d9:a9:
                    b3:4f:13:38:78:65:70:0e:72:9d:ea:39:5a:47:cc:
                    9b:5c:ec:10:b1:df:d2:f9:74:95:92:14:27:2b:8b:
                    80:4a:c1:f4:e6:cf:4f:83:a9:05:99:87:32:0b:e6:
                    02:db:1c:fa:62:42:15:9c:d6:ff:04:c4:41:e0:52:
                    72:5a:10:d6:00:02:64:23:d8:1a:da:5b:85:23:8e:
                    6e:09:dd:71:24:a2:7e:83:58:7e:c7:fb:3a:5c:93:
                    da:7e:4b:77:9c:8f:2b:d6:42:c3:8d:67:76:31:4d:
                    8a:c2:6a:2d:36:0a:30:f0:cb:da:70:b1:24:32:84:
                    9d:be:fc:5f:35:a4:3b:cd:a4:49:e5:38:3d:42:64:
                    3b:de:84:7a:f8:f8:d4:fb:0b:52:cc:b0:13:cd:a5:
                    44:bf:aa:40:46:3a:10:f5:a2:0e:e4:a8:ee:ed:12:
                    26:64:b6:af:2e:ca:80:8a:b4:b7:56:d8:47:c9:4a:
                    6d:42:0e:f8:22:08:fd:35:08:59:77:bc:93:04:7f:
                    0f:e8:8e:65:5a:87:74:36:41:8e:e2:83:1d:1e:77:
                    54:d9:79:f3:7c:f7:ac:0a:28:29:78:84:93:c8:7f:
                    d1:4d:f1:44:2d:e7:ae:e4:9d:82:65:92:c4:7c:46:
                    6d:8c:d5:a4:89:0a:33:01:2d:a2:e2:5b:cd:72:54:
                    bb:84:dd:e2:f2:ee:2f:51:c5:17:46:54:ce:17:6c:
                    10:92:4b:40:8e:4a:b9:c1:97:ed:e5:06:fe:2b:38:
                    b8:39:87:f2:44:65:30:f8:3a:86:6e:82:9b:b8:39:
                    be:f8:db:c5:55:21:18:37:ec:b5:8d:c8:1c:57:3a:
                    44:fb:0a:e0:97:7f:70:72:b4:8b:cd:cb:c1:25:55:
                    9c:01:84:f8:08:8c:b0:d3:e5:ff:e5:97:5e:2d:81:
                    83:40:9e:4e:67:fb:2d:e3:ac:d1:72:d2:a8:e1:35:
                    6e:de:0f:c6:8d:ad:d0:ca:b3:e1:f4:cb:f2:38:07:
                    e7:52:fd:a0:36:26:0c:f9:01:37:66:98:44:12:bc:
                    fc:ea:8c:f7:38:e8:2a:bd:e2:b1:13:94:76:3f:22:
                    dc:a0:cc:ce:58:be:17:7b:47:26:42:b5:dd:88:4b:
                    47:2e:a2:cf:84:74:ca:c5:e1:fc:df:3e:b0:df:af:
                    5b:58:d9
                Exponent: 65537 (0x10001)
        X509v3 extensions:
            X509v3 Subject Key Identifier: 
                10:F4:59:2A:99:36:82:8F:45:9E:73:F1:3D:87:C7:3F:09:2E:78:42
            X509v3 Authority Key Identifier: 
                keyid:10:F4:59:2A:99:36:82:8F:45:9E:73:F1:3D:87:C7:3F:09:2E:78:42

            X509v3 Basic Constraints: 
                CA:TRUE
    Signature Algorithm: sha256WithRSAEncryption
         84:99:2e:73:0e:62:47:1f:57:69:4c:86:b0:05:f5:e4:de:b3:
         62:91:37:eb:53:20:1e:2c:be:f0:54:9e:cd:03:3a:62:01:37:
         e2:3b:6c:64:b9:46:33:5c:f5:fe:05:c5:7f:f0:b5:46:39:16:
         af:e4:c9:d5:4f:22:2d:71:45:6d:77:57:f4:49:6f:e4:92:02:
         a8:a9:6a:ac:31:04:8d:3d:25:0c:a9:bd:dc:dd:f7:58:93:f9:
         ba:6b:29:c2:23:d0:9f:f9:4e:73:40:eb:80:e5:bf:35:29:fe:
         f8:61:26:2f:34:c8:da:42:8c:bf:56:a5:e3:70:8e:19:96:e2:
         33:48:1c:d3:63:b7:4e:c2:4a:25:35:84:6c:01:a8:51:0d:33:
         b3:0d:67:4c:e1:bd:9f:a0:be:73:d4:7a:71:e4:a5:ae:d4:3b:
         c8:57:17:3d:57:70:99:03:52:13:06:5c:6d:27:e4:0d:01:a1:
         e4:43:36:f7:8b:26:82:66:12:8c:68:d6:3e:4c:51:c7:c9:ac:
         bb:d0:b9:fe:64:8e:7e:88:35:65:77:65:cd:42:b0:67:8a:ca:
         3a:74:0d:c4:42:a9:21:d2:6c:30:2f:17:b0:19:b3:14:ab:34:
         e8:68:b1:29:0e:40:aa:f7:a6:a0:4e:10:23:56:7d:0f:60:06:
         29:fd:9a:06:41:5b:c5:91:ff:99:90:3e:29:3b:56:32:34:5b:
         76:80:9b:c3:f0:6d:72:f3:ea:f7:93:53:e9:81:c4:39:82:f8:
         b8:ee:20:3d:48:2d:bf:2c:f8:cb:ac:73:70:1d:0c:90:71:8b:
         56:30:df:05:0c:83:e8:24:11:84:da:8a:ea:20:14:c5:22:c3:
         32:0e:e6:54:ea:de:db:c0:83:41:f1:50:24:45:f0:7a:1d:04:
         29:b6:70:4a:d4:83:ce:eb:10:bf:85:14:fb:b6:75:33:20:bf:
         8a:1d:cd:00:64:2e:93:a7:e1:00:d8:45:7d:6c:09:1f:dd:4f:
         04:23:17:55:48:75:0b:5d:ce:38:cc:fd:56:78:09:9f:9b:0b:
         bb:71:b6:2b:a1:50:15:c1:a9:7e:5d:cc:53:e6:44:cc:ed:7b:
         90:ed:54:93:f5:6b:3e:fc:c8:6e:df:9b:18:82:62:f2:49:6a:
         68:f0:aa:30:ca:e2:77:0c:8a:33:8d:72:9d:55:e9:1b:0f:9c:
         24:da:12:fe:fd:2b:b8:a4:af:e4:dd:56:c9:8b:43:3a:17:5f:
         59:bf:37:d2:23:1b:5b:6d:77:46:55:e5:cd:5b:ca:8b:85:73:
         d5:29:8c:0a:df:18:97:ae:31:bf:45:f7:76:5f:2e:45:d3:e0:
         10:d8:70:e2:6c:4c:d6:71
-----BEGIN CERTIFICATE-----
MIIF7TCCA9WgAwIBAgIBADANBgkqhkiG9w0BAQsFADCBkDELMAkGA1UEBhMCVk4x
DjAMBgNVBAgMBUhhbm9pMQ4wDAYDVQQHDAVIYW5vaTEUMBIGA1UECgwLSEFOREVT
Sy5DT00xFDASBgNVBAsMC0hBTkRFU0suQ09NMRQwEgYDVQQDDAtoYW5kZXNrLkNP
TTEfMB0GCSqGSIb3DQEJARYQaW5mb0BoYW5kZXNrLkNPTTAeFw0xODA4MjYwNTEx
MTRaFw0xOTA4MjYwNTExMTRaMIGQMQswCQYDVQQGEwJWTjEOMAwGA1UECAwFSGFu
b2kxDjAMBgNVBAcMBUhhbm9pMRQwEgYDVQQKDAtIQU5ERVNLLkNPTTEUMBIGA1UE
CwwLSEFOREVTSy5DT00xFDASBgNVBAMMC2hhbmRlc2suQ09NMR8wHQYJKoZIhvcN
AQkBFhBpbmZvQGhhbmRlc2suQ09NMIICIjANBgkqhkiG9w0BAQEFAAOCAg8AMIIC
CgKCAgEAy4ttAslAqWGX1NHy06gFTG1Jg1Fg51eNd7cehl5/U17XR0GQLYYg6QtO
VuC1/kxOxfPwlk8OvopB8FZAjLYfxj0WaKnjxb+f2amzTxM4eGVwDnKd6jlaR8yb
XOwQsd/S+XSVkhQnK4uASsH05s9Pg6kFmYcyC+YC2xz6YkIVnNb/BMRB4FJyWhDW
AAJkI9ga2luFI45uCd1xJKJ+g1h+x/s6XJPafkt3nI8r1kLDjWd2MU2KwmotNgow
8MvacLEkMoSdvvxfNaQ7zaRJ5Tg9QmQ73oR6+PjU+wtSzLATzaVEv6pARjoQ9aIO
5Kju7RImZLavLsqAirS3VthHyUptQg74Igj9NQhZd7yTBH8P6I5lWod0NkGO4oMd
HndU2XnzfPesCigpeISTyH/RTfFELeeu5J2CZZLEfEZtjNWkiQozAS2i4lvNclS7
hN3i8u4vUcUXRlTOF2wQkktAjkq5wZft5Qb+Kzi4OYfyRGUw+DqGboKbuDm++NvF
VSEYN+y1jcgcVzpE+wrgl39wcrSLzcvBJVWcAYT4CIyw0+X/5ZdeLYGDQJ5OZ/st
46zRctKo4TVu3g/Gja3QyrPh9MvyOAfnUv2gNiYM+QE3ZphEErz86oz3OOgqveKx
E5R2PyLcoMzOWL4Xe0cmQrXdiEtHLqLPhHTKxeH83z6w369bWNkCAwEAAaNQME4w
HQYDVR0OBBYEFBD0WSqZNoKPRZ5z8T2Hxz8JLnhCMB8GA1UdIwQYMBaAFBD0WSqZ
NoKPRZ5z8T2Hxz8JLnhCMAwGA1UdEwQFMAMBAf8wDQYJKoZIhvcNAQELBQADggIB
AISZLnMOYkcfV2lMhrAF9eTes2KRN+tTIB4svvBUns0DOmIBN+I7bGS5RjNc9f4F
xX/wtUY5Fq/kydVPIi1xRW13V/RJb+SSAqipaqwxBI09JQypvdzd91iT+bprKcIj
0J/5TnNA64DlvzUp/vhhJi80yNpCjL9WpeNwjhmW4jNIHNNjt07CSiU1hGwBqFEN
M7MNZ0zhvZ+gvnPUenHkpa7UO8hXFz1XcJkDUhMGXG0n5A0BoeRDNveLJoJmEoxo
1j5MUcfJrLvQuf5kjn6INWV3Zc1CsGeKyjp0DcRCqSHSbDAvF7AZsxSrNOhosSkO
QKr3pqBOECNWfQ9gBin9mgZBW8WR/5mQPik7VjI0W3aAm8PwbXLz6veTU+mBxDmC
+LjuID1ILb8s+Musc3AdDJBxi1Yw3wUMg+gkEYTaiuogFMUiwzIO5lTq3tvAg0Hx
UCRF8HodBCm2cErUg87rEL+FFPu2dTMgv4odzQBkLpOn4QDYRX1sCR/dTwQjF1VI
dQtdzjjM/VZ4CZ+bC7txtiuhUBXBqX5dzFPmRMzte5DtVJP1az78yG7fmxiCYvJJ
amjwqjDK4ncMijONcp1V6RsPnCTaEv79K7ikr+TdVsmLQzoXX1m/N9IjG1ttd0ZV
5c1byouFc9UpjArfGJeuMb9F93ZfLkXT4BDYcOJsTNZx
-----END CERTIFICATE-----
